target datalayout = "e-m:e-p270:32:32-p271:32:32-p272:64:64-i64:64-i128:128-f80:128-n8:16:32:64-S128"
target triple = "x86_64-pc-linux-gnu"

%struct._address = type { i32, i32, ptr, ptr }
%struct.pfcp_session_args = type { ptr, ptr, i64, %struct._address, i8, %struct.pfcp_rule_ids }
%struct.pfcp_rule_ids = type { i32, i32, i32, i32, i32, i32, i32 }

@hf_pfcp2_cause = internal global i32 0, align 4
@g_pfcp_session = internal global i8 0, align 1
@.str.2639 = private unnamed_addr constant [8 x i8] c"Unknown\00", align 1
@.str.2654 = private unnamed_addr constant [3 x i8] c"%s\00", align 1

; Function Attrs: null_pointer_is_valid sspstrong uwtable
define internal void @dissect_pfcp_cause(ptr noundef %0, ptr noundef %1, ptr noundef %2, ptr noundef %3, i16 noundef zeroext %4, i8 noundef zeroext %5, ptr noundef %6) #0 {
  %8 = alloca ptr, align 8
  %9 = alloca ptr, align 8
  %10 = alloca ptr, align 8
  %11 = alloca ptr, align 8
  %12 = alloca i16, align 2
  %13 = alloca i8, align 1
  %14 = alloca ptr, align 8
  %15 = alloca i32, align 4
  store ptr %0, ptr %8, align 8
  store ptr %1, ptr %9, align 8
  store ptr %2, ptr %10, align 8
  store ptr %3, ptr %11, align 8
  store i16 %4, ptr %12, align 2
  store i8 %5, ptr %13, align 1
  store ptr %6, ptr %14, align 8
  call void @llvm.lifetime.start.p0(i64 4, ptr %15) #13
  %16 = load ptr, ptr %10, align 8
  %17 = load i32, ptr @hf_pfcp2_cause, align 4
  %18 = load ptr, ptr %8, align 8
  %19 = call ptr @proto_tree_add_item_ret_uint(ptr noundef %16, i32 noundef %17, ptr noundef %18, i32 noundef 0, i32 noundef 1, i32 noundef 0, ptr noundef %15)
  %20 = load i8, ptr @g_pfcp_session, align 1, !range !8, !noundef !9
  %21 = trunc i8 %20 to i1
  br i1 %21, label %22, label %27

22:                                               ; preds = %7
  %23 = load i32, ptr %15, align 4
  %24 = trunc i32 %23 to i8
  %25 = load ptr, ptr %14, align 8
  %26 = getelementptr inbounds nuw %struct.pfcp_session_args, ptr %25, i32 0, i32 4
  store i8 %24, ptr %26, align 8
  br label %27

27:                                               ; preds = %22, %7
  %28 = load ptr, ptr %11, align 8
  %29 = load i32, ptr %15, align 4
  %30 = call ptr @val_to_str_const(i32 noundef %29, ptr noundef @pfcp_cause_vals, ptr noundef @.str.2639)
  call void (ptr, ptr, ...) @proto_item_append_text(ptr noundef %28, ptr noundef @.str.2654, ptr noundef %30)
  call void @llvm.lifetime.end.p0(i64 4, ptr %15) #13
  ret void
}