; Function Attrs: null_pointer_is_valid sspstrong uwtable
define internal void @dissect_pfcp_cause(ptr noundef %0, ptr readnone captures(none) %1, ptr noundef %2, ptr noundef %3, i16 zeroext %4, i8 zeroext %5, ptr noundef writeonly captures(none) %6) #0 {
  %8 = alloca i32, align 4
  call void @llvm.lifetime.start.p0(i64 4, ptr nonnull %8) #15
  %9 = load i32, ptr @hf_pfcp2_cause, align 4
  %10 = call ptr @proto_tree_add_item_ret_uint(ptr noundef %2, i32 noundef %9, ptr noundef %0, i32 noundef 0, i32 noundef 1, i32 noundef 0, ptr noundef nonnull %8)
  %11 = load i8, ptr @g_pfcp_session, align 1, !range !8, !noundef !9
  %12 = trunc nuw i8 %11 to i1
  %.pre = load i32, ptr %8, align 4
  br i1 %12, label %13, label %16

13:                                               ; preds = %7
  %14 = trunc i32 %.pre to i8
  %15 = getelementptr inbounds nuw i8, ptr %6, i64 48
  store i8 %14, ptr %15, align 8
  br label %16

16:                                               ; preds = %13, %7
  %17 = call ptr @val_to_str_const(i32 noundef %.pre, ptr noundef nonnull @pfcp_cause_vals, ptr noundef nonnull @.str.2639)
  call void (ptr, ptr, ...) @proto_item_append_text(ptr noundef %3, ptr noundef nonnull @.str.2654, ptr noundef %17)
  call void @llvm.lifetime.end.p0(i64 4, ptr nonnull %8) #15
  ret void
}